target datalayout = "e-m:e-p270:32:32-p271:32:32-p272:64:64-i64:64-i128:128-f80:128-n8:16:32:64-S128"
target triple = "x86_64-pc-linux-gnu"

%class.QString = type { ptr }
%class.TFHandle = type <{ %class.Handle, i32, [4 x i8], ptr, i8, [7 x i8] }>
%class.Handle = type { %class.QGraphicsObject, %class.QColor, i32, ptr }
%class.QGraphicsObject = type { %class.QObject, %class.QGraphicsItem }
%class.QObject = type { ptr, %class.QScopedPointer }
%class.QScopedPointer = type { ptr }
%class.QGraphicsItem = type { ptr, %class.QScopedPointer.16 }
%class.QScopedPointer.16 = type { ptr }
%class.QColor = type <{ i32, %"union.QColor::CT", [2 x i8] }>
%"union.QColor::CT" = type { %struct.anon }
%struct.anon = type { i16, i16, i16, i16, i16 }
%struct.TF_KEY = type { float, float }
%class.QPointF = type { double, double }
%class.QFlags = type { i32 }
%class.QualityMapperDialog = type { %class.QDockWidget, %"class.Ui::QualityMapperDialogClass", ptr, ptr, %class.QGraphicsScene, [3 x ptr], double, i8, i8, %class.QList, i32, ptr, ptr, ptr, %class.QGraphicsScene, ptr, [3 x %class.QList.22], ptr, %class.QString, %class.QList, %class.QList, i8, %class.QList.25, %class.QList, ptr, ptr }
%class.QDockWidget = type { %class.QWidget }
%class.QWidget = type { %class.QObject, %class.QPaintDevice, ptr }
%class.QPaintDevice = type { ptr, i16, ptr }
%"class.Ui::QualityMapperDialogClass" = type { %class.Ui_QualityMapperDialogClass }
%class.Ui_QualityMapperDialogClass = type { ptr, ptr, ptr, ptr, ptr, ptr, ptr, ptr, ptr, ptr, ptr, ptr, ptr, ptr, ptr, ptr, ptr, ptr, ptr, ptr, ptr, ptr, ptr, ptr, ptr, ptr, ptr, ptr, ptr, ptr, ptr, ptr, ptr, ptr, ptr, ptr, ptr, ptr, ptr, ptr, ptr, ptr, ptr, ptr, ptr, ptr, ptr, ptr, ptr, ptr, ptr, ptr, ptr, ptr, ptr, ptr, ptr, ptr, ptr, ptr, ptr, ptr, ptr, ptr, ptr, ptr, ptr, ptr }
%class.QGraphicsScene = type { %class.QObject }
%class.QList.22 = type { %union.anon.24 }
%union.anon.24 = type { %struct.QListData }
%struct.QListData = type { ptr }
%class.QList.25 = type { %union.anon.27 }
%union.anon.27 = type { %struct.QListData }
%class.QList = type { %union.anon }
%union.anon = type { %struct.QListData }
%class.QFont = type <{ %class.QExplicitlySharedDataPointer, i32, [4 x i8] }>
%class.QExplicitlySharedDataPointer = type { ptr }
%class.QRect = type { i32, i32, i32, i32 }
%class.QWidgetData = type { i64, i32, %class.QFlags, i32, %class.QRect, [4 x i8], %class.QPalette, %class.QFont, %class.QRect }
%class.QPalette = type <{ ptr, %union.anon.173, [4 x i8] }>
%union.anon.173 = type { %"struct.QPalette::Data" }
%"struct.QPalette::Data" = type { i32 }
%struct.CHART_INFO = type { ptr, float, float, float, float, i32, i32 }
%class.TransferFunction = type <{ [3 x %class.TfChannel], [3 x i32], [1024 x %class.QColor], [4 x i8] }>
%class.TfChannel = type { i32, %"class.std::vector.143" }
%"class.std::vector.143" = type { %"struct.std::_Vector_base.144" }
%"struct.std::_Vector_base.144" = type { %"struct.std::_Vector_base<TF_KEY *, std::allocator<TF_KEY *>>::_Vector_impl" }
%"struct.std::_Vector_base<TF_KEY *, std::allocator<TF_KEY *>>::_Vector_impl" = type { %"struct.std::_Vector_base<TF_KEY *, std::allocator<TF_KEY *>>::_Vector_impl_data" }
%"struct.std::_Vector_base<TF_KEY *, std::allocator<TF_KEY *>>::_Vector_impl_data" = type { ptr, ptr, ptr }

; Function Attrs: mustprogress nounwind uwtable
define linkonce_odr noundef i32 @_ZNK5QRect6heightEv(ptr noundef nonnull align 4 dereferenceable(16) %0) #4 comdat align 2 {
  %2 = alloca ptr, align 8
  store ptr %0, ptr %2, align 8
  %3 = load ptr, ptr %2, align 8
  %4 = getelementptr inbounds %class.QRect, ptr %3, i32 0, i32 3
  %5 = load i32, ptr %4, align 4
  %6 = getelementptr inbounds %class.QRect, ptr %3, i32 0, i32 1
  %7 = load i32, ptr %6, align 4
  %8 = sub nsw i32 %5, %7
  %9 = add nsw i32 %8, 1
  ret i32 %9
}

; Function Attrs: mustprogress nounwind uwtable
define linkonce_odr noundef i32 @_ZNK5QRect5widthEv(ptr noundef nonnull align 4 dereferenceable(16) %0) #4 comdat align 2 {
  %2 = alloca ptr, align 8
  store ptr %0, ptr %2, align 8
  %3 = load ptr, ptr %2, align 8
  %4 = getelementptr inbounds %class.QRect, ptr %3, i32 0, i32 2
  %5 = load i32, ptr %4, align 4
  %6 = getelementptr inbounds %class.QRect, ptr %3, i32 0, i32 0
  %7 = load i32, ptr %6, align 4
  %8 = sub nsw i32 %5, %7
  %9 = add nsw i32 %8, 1
  ret i32 %9
}

; Function Attrs: mustprogress nounwind uwtable
define linkonce_odr noundef i32 @_ZNK7QWidget6heightEv(ptr noundef nonnull align 8 dereferenceable(48) %0) #4 comdat align 2 {
  %2 = alloca ptr, align 8
  store ptr %0, ptr %2, align 8
  %3 = load ptr, ptr %2, align 8
  %4 = getelementptr inbounds %class.QWidget, ptr %3, i32 0, i32 2
  %5 = load ptr, ptr %4, align 8
  %6 = getelementptr inbounds %class.QWidgetData, ptr %5, i32 0, i32 4
  %7 = call noundef i32 @_ZNK5QRect6heightEv(ptr noundef nonnull align 4 dereferenceable(16) %6) #3
  ret i32 %7
}

; Function Attrs: mustprogress nounwind uwtable
define linkonce_odr noundef i32 @_ZNK7QWidget5widthEv(ptr noundef nonnull align 8 dereferenceable(48) %0) #4 comdat align 2 {
  %2 = alloca ptr, align 8
  store ptr %0, ptr %2, align 8
  %3 = load ptr, ptr %2, align 8
  %4 = getelementptr inbounds %class.QWidget, ptr %3, i32 0, i32 2
  %5 = load ptr, ptr %4, align 8
  %6 = getelementptr inbounds %class.QWidgetData, ptr %5, i32 0, i32 4
  %7 = call noundef i32 @_ZNK5QRect5widthEv(ptr noundef nonnull align 4 dereferenceable(16) %6) #3
  ret i32 %7
}

; Function Attrs: mustprogress nounwind uwtable
define linkonce_odr noundef float @_ZN10CHART_INFO11lowerBorderEv(ptr noundef nonnull align 8 dereferenceable(32) %0) #4 comdat align 2 {
  %2 = alloca ptr, align 8
  store ptr %0, ptr %2, align 8
  %3 = load ptr, ptr %2, align 8
  %4 = getelementptr inbounds %struct.CHART_INFO, ptr %3, i32 0, i32 0
  %5 = load ptr, ptr %4, align 8
  %6 = call noundef i32 @_ZNK7QWidget6heightEv(ptr noundef nonnull align 8 dereferenceable(48) %5)
  %7 = sitofp i32 %6 to float
  %8 = fsub float %7, 1.000000e+01
  ret float %8
}

; Function Attrs: mustprogress nounwind uwtable
define linkonce_odr noundef float @_ZN10CHART_INFO11rightBorderEv(ptr noundef nonnull align 8 dereferenceable(32) %0) #4 comdat align 2 {
  %2 = alloca ptr, align 8
  store ptr %0, ptr %2, align 8
  %3 = load ptr, ptr %2, align 8
  %4 = getelementptr inbounds %struct.CHART_INFO, ptr %3, i32 0, i32 0
  %5 = load ptr, ptr %4, align 8
  %6 = call noundef i32 @_ZNK7QWidget5widthEv(ptr noundef nonnull align 8 dereferenceable(48) %5)
  %7 = sitofp i32 %6 to float
  %8 = fsub float %7, 1.000000e+01
  ret float %8
}

; Function Attrs: mustprogress nounwind uwtable
define linkonce_odr noundef float @_ZN8TFHandle12getRelativeXEv(ptr noundef nonnull align 8 dereferenceable(81) %0) #4 comdat align 2 {
  %2 = alloca ptr, align 8
  store ptr %0, ptr %2, align 8
  %3 = load ptr, ptr %2, align 8
  %4 = getelementptr inbounds %class.TFHandle, ptr %3, i32 0, i32 3
  %5 = load ptr, ptr %4, align 8
  %6 = getelementptr inbounds %struct.TF_KEY, ptr %5, i32 0, i32 0
  %7 = load float, ptr %6, align 4
  ret float %7
}

; Function Attrs: mustprogress nounwind uwtable
define linkonce_odr noundef i32 @_ZN8TFHandle10getChannelEv(ptr noundef nonnull align 8 dereferenceable(81) %0) #4 comdat align 2 {
  %2 = alloca ptr, align 8
  store ptr %0, ptr %2, align 8
  %3 = load ptr, ptr %2, align 8
  %4 = getelementptr inbounds %class.TFHandle, ptr %3, i32 0, i32 1
  %5 = load i32, ptr %4, align 8
  ret i32 %5
}

; Function Attrs: mustprogress nounwind uwtable
define linkonce_odr void @_ZN8TFHandle19setCurrentlSelectedEb(ptr noundef nonnull align 8 dereferenceable(81) %0, i1 noundef zeroext %1) #4 comdat align 2 {
  %3 = alloca ptr, align 8
  %4 = alloca i8, align 1
  store ptr %0, ptr %3, align 8
  %5 = zext i1 %1 to i8
  store i8 %5, ptr %4, align 1
  %6 = load ptr, ptr %3, align 8
  %7 = load i8, ptr %4, align 1
  %8 = trunc i8 %7 to i1
  %9 = getelementptr inbounds %class.TFHandle, ptr %6, i32 0, i32 4
  %10 = zext i1 %8 to i8
  store i8 %10, ptr %9, align 8
  ret void
}

; Function Attrs: mustprogress nounwind uwtable
define linkonce_odr noundef nonnull align 8 dereferenceable(32) ptr @_ZN16TransferFunction10getChannelEi(ptr noundef nonnull align 8 dereferenceable(16492) %0, i32 noundef %1) #4 comdat align 2 {
  %3 = alloca ptr, align 8
  %4 = alloca i32, align 4
  store ptr %0, ptr %3, align 8
  store i32 %1, ptr %4, align 4
  %5 = load ptr, ptr %3, align 8
  %6 = getelementptr inbounds %class.TransferFunction, ptr %5, i32 0, i32 0
  %7 = load i32, ptr %4, align 4
  %8 = sext i32 %7 to i64
  %9 = getelementptr inbounds [3 x %class.TfChannel], ptr %6, i64 0, i64 %8
  ret ptr %9
}

; Function Attrs: mustprogress nounwind uwtable
define linkonce_odr void @_ZN6TF_KEYC2Eff(ptr noundef nonnull align 4 dereferenceable(8) %0, float noundef %1, float noundef %2) unnamed_addr #4 comdat align 2 {
  %4 = alloca ptr, align 8
  %5 = alloca float, align 4
  %6 = alloca float, align 4
  store ptr %0, ptr %4, align 8
  store float %1, ptr %5, align 4
  store float %2, ptr %6, align 4
  %7 = load ptr, ptr %4, align 8
  %8 = load float, ptr %5, align 4
  %9 = getelementptr inbounds %struct.TF_KEY, ptr %7, i32 0, i32 0
  store float %8, ptr %9, align 4
  %10 = load float, ptr %6, align 4
  %11 = getelementptr inbounds %struct.TF_KEY, ptr %7, i32 0, i32 1
  store float %10, ptr %11, align 4
  ret void
}

; Function Attrs: mustprogress uwtable
define linkonce_odr noundef float @_ZN10CHART_INFO11chartHeightEv(ptr noundef nonnull align 8 dereferenceable(32) %0) #5 comdat align 2 {
  %2 = alloca ptr, align 8
  store ptr %0, ptr %2, align 8
  %3 = load ptr, ptr %2, align 8
  %4 = call noundef float @_ZN10CHART_INFO11lowerBorderEv(ptr noundef nonnull align 8 dereferenceable(32) %3)
  %5 = call noundef float @_ZN10CHART_INFO11upperBorderEv(ptr noundef nonnull align 8 dereferenceable(32) %3)
  %6 = fsub float %4, %5
  ret float %6
}

; Function Attrs: mustprogress uwtable
define linkonce_odr noundef float @_ZN10CHART_INFO10chartWidthEv(ptr noundef nonnull align 8 dereferenceable(32) %0) #5 comdat align 2 {
  %2 = alloca ptr, align 8
  store ptr %0, ptr %2, align 8
  %3 = load ptr, ptr %2, align 8
  %4 = call noundef float @_ZN10CHART_INFO11rightBorderEv(ptr noundef nonnull align 8 dereferenceable(32) %3)
  %5 = call noundef float @_ZN10CHART_INFO10leftBorderEv(ptr noundef nonnull align 8 dereferenceable(32) %3)
  %6 = fsub float %4, %5
  ret float %6
}

; Function Attrs: mustprogress nounwind uwtable
define linkonce_odr noundef float @_ZN10CHART_INFO11upperBorderEv(ptr noundef nonnull align 8 dereferenceable(32) %0) #4 comdat align 2 {
  %2 = alloca ptr, align 8
  store ptr %0, ptr %2, align 8
  ret float 1.000000e+01
}

; Function Attrs: mustprogress nounwind uwtable
define linkonce_odr noundef double @_ZNK7QPointF1yEv(ptr noundef nonnull align 8 dereferenceable(16) %0) #4 comdat align 2 {
  %2 = alloca ptr, align 8
  store ptr %0, ptr %2, align 8
  %3 = load ptr, ptr %2, align 8
  %4 = getelementptr inbounds %class.QPointF, ptr %3, i32 0, i32 1
  %5 = load double, ptr %4, align 8
  ret double %5
}

; Function Attrs: mustprogress nounwind uwtable
define linkonce_odr noundef float @_ZN10CHART_INFO10leftBorderEv(ptr noundef nonnull align 8 dereferenceable(32) %0) #4 comdat align 2 {
  %2 = alloca ptr, align 8
  store ptr %0, ptr %2, align 8
  ret float 1.000000e+01
}

; Function Attrs: mustprogress nounwind uwtable
define linkonce_odr noundef double @_ZNK7QPointF1xEv(ptr noundef nonnull align 8 dereferenceable(16) %0) #4 comdat align 2 {
  %2 = alloca ptr, align 8
  store ptr %0, ptr %2, align 8
  %3 = load ptr, ptr %2, align 8
  %4 = getelementptr inbounds %class.QPointF, ptr %3, i32 0, i32 0
  %5 = load double, ptr %4, align 8
  ret double %5
}

; Function Attrs: mustprogress nounwind uwtable
define linkonce_odr noundef i32 @_ZN16TransferFunction19getFirstPlaneChanelEv(ptr noundef nonnull align 8 dereferenceable(16492) %0) #4 comdat align 2 {
  %2 = alloca ptr, align 8
  store ptr %0, ptr %2, align 8
  %3 = load ptr, ptr %2, align 8
  %4 = getelementptr inbounds %class.TransferFunction, ptr %3, i32 0, i32 1
  %5 = getelementptr inbounds [3 x i32], ptr %4, i64 0, i64 2
  %6 = load i32, ptr %5, align 8
  ret i32 %6
}

; Function Attrs: mustprogress uwtable
define void @_ZN19QualityMapperDialog24on_TF_view_doubleClickedE7QPointF(ptr noundef nonnull align 8 dereferenceable(824) %0, double %1, double %2) #5 align 2 personality ptr @__gxx_personality_v0 {
  %4 = alloca %class.QPointF, align 8
  %5 = alloca ptr, align 8
  %6 = alloca i32, align 4
  %7 = alloca float, align 4
  %8 = alloca float, align 4
  %9 = alloca ptr, align 8
  %10 = alloca ptr, align 8
  %11 = alloca i32, align 4
  %12 = alloca ptr, align 8
  %13 = alloca %class.QPointF, align 8
  %14 = getelementptr inbounds { double, double }, ptr %4, i32 0, i32 0
  store double %1, ptr %14, align 8
  %15 = getelementptr inbounds { double, double }, ptr %4, i32 0, i32 1
  store double %2, ptr %15, align 8
  store ptr %0, ptr %5, align 8
  %16 = load ptr, ptr %5, align 8
  store i32 -1, ptr %6, align 4
  %17 = getelementptr inbounds %class.QualityMapperDialog, ptr %16, i32 0, i32 12
  %18 = load ptr, ptr %17, align 8
  %19 = call noundef i32 @_ZN16TransferFunction19getFirstPlaneChanelEv(ptr noundef nonnull align 8 dereferenceable(16492) %18)
  store i32 %19, ptr %6, align 4
  %20 = call noundef double @_ZNK7QPointF1xEv(ptr noundef nonnull align 8 dereferenceable(16) %4)
  %21 = getelementptr inbounds %class.QualityMapperDialog, ptr %16, i32 0, i32 13
  %22 = load ptr, ptr %21, align 8
  %23 = call noundef float @_ZN10CHART_INFO10leftBorderEv(ptr noundef nonnull align 8 dereferenceable(32) %22)
  %24 = fpext float %23 to double
  %25 = fsub double %20, %24
  %26 = fptrunc double %25 to float
  store float %26, ptr %7, align 4
  %27 = call noundef double @_ZNK7QPointF1yEv(ptr noundef nonnull align 8 dereferenceable(16) %4)
  %28 = getelementptr inbounds %class.QualityMapperDialog, ptr %16, i32 0, i32 13
  %29 = load ptr, ptr %28, align 8
  %30 = call noundef float @_ZN10CHART_INFO11upperBorderEv(ptr noundef nonnull align 8 dereferenceable(32) %29)
  %31 = fpext float %30 to double
  %32 = fsub double %27, %31
  %33 = fptrunc double %32 to float
  store float %33, ptr %8, align 4
  %34 = call noalias noundef nonnull ptr @_Znwm(i64 noundef 8) #22
  %35 = load float, ptr %7, align 4
  %36 = getelementptr inbounds %class.QualityMapperDialog, ptr %16, i32 0, i32 13
  %37 = load ptr, ptr %36, align 8
  %38 = invoke noundef float @_ZN10CHART_INFO10chartWidthEv(ptr noundef nonnull align 8 dereferenceable(32) %37)
          to label %39 unwind label %74

39:                                               ; preds = %3
  %40 = invoke noundef float @_Z21absolute2RelativeValfff(float noundef %35, float noundef %38)
          to label %41 unwind label %74

41:                                               ; preds = %39
  %42 = load float, ptr %8, align 4
  %43 = getelementptr inbounds %class.QualityMapperDialog, ptr %16, i32 0, i32 13
  %44 = load ptr, ptr %43, align 8
  %45 = invoke noundef float @_ZN10CHART_INFO11chartHeightEv(ptr noundef nonnull align 8 dereferenceable(32) %44)
          to label %46 unwind label %74

46:                                               ; preds = %41
  %47 = invoke noundef float @_Z21absolute2RelativeValfff(float noundef %42, float noundef %45)
          to label %48 unwind label %74

48:                                               ; preds = %46
  invoke void @_ZN6TF_KEYC2Eff(ptr noundef nonnull align 4 dereferenceable(8) %34, float noundef %40, float noundef %47)
          to label %49 unwind label %74

49:                                               ; preds = %48
  store ptr %34, ptr %9, align 8
  %50 = getelementptr inbounds %class.QualityMapperDialog, ptr %16, i32 0, i32 12
  %51 = load ptr, ptr %50, align 8
  %52 = load i32, ptr %6, align 4
  %53 = call noundef nonnull align 8 dereferenceable(32) ptr @_ZN16TransferFunction10getChannelEi(ptr noundef nonnull align 8 dereferenceable(16492) %51, i32 noundef %52)
  %54 = load ptr, ptr %9, align 8
  %55 = call noundef ptr @_ZN9TfChannel6addKeyEP6TF_KEY(ptr noundef nonnull align 8 dereferenceable(32) %53, ptr noundef %54)
  %56 = load i32, ptr %6, align 4
  call void @llvm.memcpy.p0.p0.i64(ptr align 8 %13, ptr align 8 %4, i64 16, i1 false)
  %57 = load ptr, ptr %9, align 8
  %58 = load i32, ptr %6, align 4
  %59 = add nsw i32 %58, 1
  %60 = sitofp i32 %59 to float
  %61 = call float @llvm.fmuladd.f32(float %60, float 2.000000e+00, float 1.000000e+00)
  %62 = fptosi float %61 to i32
  %63 = getelementptr inbounds { double, double }, ptr %13, i32 0, i32 0
  %64 = load double, ptr %63, align 8
  %65 = getelementptr inbounds { double, double }, ptr %13, i32 0, i32 1
  %66 = load double, ptr %65, align 8
  %67 = call noundef ptr @_ZN19QualityMapperDialog11addTfHandleEi7QPointFP6TF_KEYi(ptr noundef nonnull align 8 dereferenceable(824) %16, i32 noundef %56, double %64, double %66, ptr noundef %57, i32 noundef %62)
  store ptr %67, ptr %12, align 8
  %68 = getelementptr inbounds %class.QualityMapperDialog, ptr %16, i32 0, i32 17
  %69 = load ptr, ptr %68, align 8
  %70 = icmp ne ptr %69, null
  br i1 %70, label %71, label %78

71:                                               ; preds = %49
  %72 = getelementptr inbounds %class.QualityMapperDialog, ptr %16, i32 0, i32 17
  %73 = load ptr, ptr %72, align 8
  call void @_ZN8TFHandle19setCurrentlSelectedEb(ptr noundef nonnull align 8 dereferenceable(81) %73, i1 noundef zeroext false)
  br label %78

74:                                               ; preds = %48, %46, %41, %39, %3
  %75 = landingpad { ptr, i32 }
          cleanup
  %76 = extractvalue { ptr, i32 } %75, 0
  store ptr %76, ptr %10, align 8
  %77 = extractvalue { ptr, i32 } %75, 1
  store i32 %77, ptr %11, align 4
  call void @_ZdlPv(ptr noundef %34) #23
  br label %94

78:                                               ; preds = %71, %49
  %79 = load ptr, ptr %12, align 8
  %80 = getelementptr inbounds %class.QualityMapperDialog, ptr %16, i32 0, i32 17
  store ptr %79, ptr %80, align 8
  %81 = getelementptr inbounds %class.QualityMapperDialog, ptr %16, i32 0, i32 17
  %82 = load ptr, ptr %81, align 8
  call void @_ZN8TFHandle19setCurrentlSelectedEb(ptr noundef nonnull align 8 dereferenceable(81) %82, i1 noundef zeroext true)
  %83 = load ptr, ptr %12, align 8
  %84 = call noundef i32 @_ZN8TFHandle10getChannelEv(ptr noundef nonnull align 8 dereferenceable(81) %83)
  call void @_ZN19QualityMapperDialog20updateTfHandlesOrderEi(ptr noundef nonnull align 8 dereferenceable(824) %16, i32 noundef %84)
  call void @_ZN19QualityMapperDialog20drawTransferFunctionEv(ptr noundef nonnull align 8 dereferenceable(824) %16)
  %85 = getelementptr inbounds %class.QualityMapperDialog, ptr %16, i32 0, i32 17
  %86 = load ptr, ptr %85, align 8
  %87 = call noundef float @_ZN8TFHandle12getRelativeXEv(ptr noundef nonnull align 8 dereferenceable(81) %86)
  call void @_ZN19QualityMapperDialog19updateXQualityLabelEf(ptr noundef nonnull align 8 dereferenceable(824) %16, float noundef %87)
  %88 = getelementptr inbounds %class.QualityMapperDialog, ptr %16, i32 0, i32 1
  %89 = getelementptr inbounds %class.Ui_QualityMapperDialogClass, ptr %88, i32 0, i32 65
  %90 = load ptr, ptr %89, align 8
  %91 = call noundef zeroext i1 @_ZNK15QAbstractButton9isCheckedEv(ptr noundef nonnull align 8 dereferenceable(48) %90)
  br i1 %91, label %92, label %93

92:                                               ; preds = %78
  call void @_ZN19QualityMapperDialog22on_applyButton_clickedEv(ptr noundef nonnull align 8 dereferenceable(824) %16)
  br label %93

93:                                               ; preds = %92, %78
  ret void

94:                                               ; preds = %74
  %95 = load ptr, ptr %10, align 8
  %96 = load i32, ptr %11, align 4
  %97 = insertvalue { ptr, i32 } poison, ptr %95, 0
  %98 = insertvalue { ptr, i32 } %97, i32 %96, 1
  resume { ptr, i32 } %98
}