; Function Attrs: mustprogress uwtable
define void @_ZN19QualityMapperDialog24on_TF_view_doubleClickedE7QPointF(ptr noundef nonnull align 8 dereferenceable(824) %0, double %1, double %2) local_unnamed_addr #9 align 2 personality ptr @__gxx_personality_v0 {
  %4 = getelementptr inbounds i8, ptr %0, i64 688
  %5 = load ptr, ptr %4, align 8
  %6 = getelementptr inbounds i8, ptr %5, i64 104
  %7 = load i32, ptr %6, align 8
  %8 = getelementptr inbounds i8, ptr %0, i64 696
  %9 = tail call noalias noundef nonnull dereferenceable(8) ptr @_Znwm(i64 noundef 8) #26
  %10 = load ptr, ptr %8, align 8
  %11 = load ptr, ptr %10, align 8
  %12 = getelementptr inbounds i8, ptr %11, i64 40
  %13 = load ptr, ptr %12, align 8
  %14 = getelementptr inbounds i8, ptr %13, i64 20
  %15 = getelementptr inbounds i8, ptr %13, i64 28
  %16 = load i32, ptr %15, align 4
  %17 = load i32, ptr %14, align 4
  %18 = add i32 %16, 1
  %19 = sub i32 %18, %17
  %20 = sitofp i32 %19 to float
  %21 = fadd float %20, -1.000000e+01
  %22 = fadd float %21, -1.000000e+01
  %23 = fadd double %1, -1.000000e+01
  %24 = fptrunc double %23 to float
  %25 = invoke noundef float @_Z21absolute2RelativeValfff(float noundef %24, float noundef %22)
          to label %26 unwind label %58

26:                                               ; preds = %3
  %27 = fadd double %2, -1.000000e+01
  %28 = fptrunc double %27 to float
  %29 = load ptr, ptr %8, align 8
  %30 = load ptr, ptr %29, align 8
  %31 = getelementptr inbounds i8, ptr %30, i64 40
  %32 = load ptr, ptr %31, align 8
  %33 = getelementptr inbounds i8, ptr %32, i64 32
  %34 = load i32, ptr %33, align 4
  %35 = getelementptr inbounds i8, ptr %32, i64 24
  %36 = load i32, ptr %35, align 4
  %37 = add i32 %34, 1
  %38 = sub i32 %37, %36
  %39 = sitofp i32 %38 to float
  %40 = fadd float %39, -1.000000e+01
  %41 = fadd float %40, -1.000000e+01
  %42 = invoke noundef float @_Z21absolute2RelativeValfff(float noundef %28, float noundef %41)
          to label %43 unwind label %58

43:                                               ; preds = %26
  store float %25, ptr %9, align 4
  %44 = getelementptr inbounds i8, ptr %9, i64 4
  store float %42, ptr %44, align 4
  %45 = load ptr, ptr %4, align 8
  %46 = sext i32 %7 to i64
  %47 = getelementptr inbounds [3 x %class.TfChannel], ptr %45, i64 0, i64 %46
  %48 = tail call noundef ptr @_ZN9TfChannel6addKeyEP6TF_KEY(ptr noundef nonnull align 8 dereferenceable(32) %47, ptr noundef nonnull %9)
  %49 = add nsw i32 %7, 1
  %50 = sitofp i32 %49 to float
  %51 = tail call float @llvm.fmuladd.f32(float %50, float 2.000000e+00, float 1.000000e+00)
  %52 = fptosi float %51 to i32
  %53 = tail call noundef ptr @_ZN19QualityMapperDialog11addTfHandleEi7QPointFP6TF_KEYi(ptr noundef nonnull align 8 dereferenceable(824) %0, i32 noundef %7, double %1, double %2, ptr noundef nonnull %9, i32 noundef %52)
  %54 = getelementptr inbounds i8, ptr %0, i64 752
  %55 = load ptr, ptr %54, align 8
  %.not = icmp eq ptr %55, null
  br i1 %.not, label %60, label %56

56:                                               ; preds = %43
  %57 = getelementptr inbounds i8, ptr %55, i64 80
  store i8 0, ptr %57, align 8
  br label %60

58:                                               ; preds = %26, %3
  %59 = landingpad { ptr, i32 }
          cleanup
  tail call void @_ZdlPv(ptr noundef nonnull %9) #22
  resume { ptr, i32 } %59

60:                                               ; preds = %56, %43
  store ptr %53, ptr %54, align 8
  %61 = getelementptr inbounds i8, ptr %53, i64 80
  store i8 1, ptr %61, align 8
  %62 = getelementptr inbounds i8, ptr %53, i64 64
  %63 = load i32, ptr %62, align 8
  tail call void @_ZN19QualityMapperDialog20updateTfHandlesOrderEi(ptr noundef nonnull align 8 dereferenceable(824) %0, i32 noundef %63)
  tail call void @_ZN19QualityMapperDialog20drawTransferFunctionEv(ptr noundef nonnull align 8 dereferenceable(824) %0)
  %64 = load ptr, ptr %54, align 8
  %65 = getelementptr inbounds i8, ptr %64, i64 72
  %66 = load ptr, ptr %65, align 8
  %67 = load float, ptr %66, align 4
  tail call void @_ZN19QualityMapperDialog19updateXQualityLabelEf(ptr noundef nonnull align 8 dereferenceable(824) %0, float noundef %67)
  %68 = getelementptr inbounds i8, ptr %0, i64 568
  %69 = load ptr, ptr %68, align 8
  %70 = tail call noundef zeroext i1 @_ZNK15QAbstractButton9isCheckedEv(ptr noundef nonnull align 8 dereferenceable(48) %69)
  br i1 %70, label %71, label %72

71:                                               ; preds = %60
  tail call void @_ZN19QualityMapperDialog22on_applyButton_clickedEv(ptr noundef nonnull align 8 dereferenceable(824) %0)
  br label %72

72:                                               ; preds = %71, %60
  ret void
}